; Function Attrs: mustprogress uwtable
define dso_local noundef i32 @_ZN4absl12log_internal9VLogLevelESt17basic_string_viewIcSt11char_traitsIcEE(i64 %0, ptr %1) local_unnamed_addr #1 personality ptr @__gxx_personality_v0 {
  %3 = alloca %"class.absl::base_internal::SpinLockHolder", align 8
  call void @llvm.lifetime.start.p0(i64 8, ptr nonnull %3) #21
  store ptr @_ZN4absl12log_internal12_GLOBAL__N_15mutexE, ptr %3, align 8, !tbaa !19
  %4 = load atomic i32, ptr @_ZN4absl12log_internal12_GLOBAL__N_15mutexE monotonic, align 4
  %5 = and i32 %4, 1
  %.not.i.i.i.i = icmp eq i32 %5, 0
  br i1 %.not.i.i.i.i, label %_ZN4absl13base_internal8SpinLock11TryLockImplEv.exit.i.i, label %_ZN4absl13base_internal8SpinLock11TryLockImplEv.exit.thread.i.i

_ZN4absl13base_internal8SpinLock11TryLockImplEv.exit.i.i: ; preds = %2
  %6 = or disjoint i32 %4, 1
  %7 = cmpxchg ptr @_ZN4absl12log_internal12_GLOBAL__N_15mutexE, i32 %4, i32 %6 acquire monotonic, align 4
  %8 = extractvalue { i32, i1 } %7, 0
  %.pre.i.i.i = and i32 %8, 1
  %9 = icmp eq i32 %.pre.i.i.i, 0
  br i1 %9, label %_ZN4absl13base_internal14SpinLockHolderC2EPNS0_8SpinLockE.exit, label %_ZN4absl13base_internal8SpinLock11TryLockImplEv.exit.thread.i.i

_ZN4absl13base_internal8SpinLock11TryLockImplEv.exit.thread.i.i: ; preds = %_ZN4absl13base_internal8SpinLock11TryLockImplEv.exit.i.i, %2
  tail call void @_ZN4absl13base_internal8SpinLock8SlowLockEv(ptr noundef nonnull align 4 dereferenceable(4) @_ZN4absl12log_internal12_GLOBAL__N_15mutexE) #22
  br label %_ZN4absl13base_internal14SpinLockHolderC2EPNS0_8SpinLockE.exit

_ZN4absl13base_internal14SpinLockHolderC2EPNS0_8SpinLockE.exit: ; preds = %_ZN4absl13base_internal8SpinLock11TryLockImplEv.exit.i.i, %_ZN4absl13base_internal8SpinLock11TryLockImplEv.exit.thread.i.i
  %10 = load ptr, ptr @_ZN4absl12log_internal12_GLOBAL__N_112vmodule_infoE, align 8, !tbaa !22
  %11 = load i32, ptr @_ZN4absl12log_internal12_GLOBAL__N_18global_vE, align 4, !tbaa !24
  %12 = invoke fastcc noundef i32 @_ZN4absl12log_internal12_GLOBAL__N_19VLogLevelESt17basic_string_viewIcSt11char_traitsIcEEPKSt6vectorINS1_11VModuleInfoESaIS7_EEi(i64 %0, ptr %1, ptr noundef %10, i32 noundef %11)
          to label %13 unwind label %22

13:                                               ; preds = %_ZN4absl13base_internal14SpinLockHolderC2EPNS0_8SpinLockE.exit
  %14 = load ptr, ptr %3, align 8, !tbaa !19
  %15 = load atomic i32, ptr %14 monotonic, align 4
  %16 = and i32 %15, 2
  %17 = atomicrmw xchg ptr %14, i32 %16 release, align 4
  %.not4.i.i = icmp ult i32 %17, 8
  br i1 %.not4.i.i, label %_ZN4absl13base_internal14SpinLockHolderD2Ev.exit, label %18

18:                                               ; preds = %13
  invoke void @_ZN4absl13base_internal8SpinLock10SlowUnlockEj(ptr noundef nonnull align 4 dereferenceable(4) %14, i32 noundef %17) #22
          to label %_ZN4absl13base_internal14SpinLockHolderD2Ev.exit unwind label %19

19:                                               ; preds = %18
  %20 = landingpad { ptr, i32 }
          catch ptr null
  %21 = extractvalue { ptr, i32 } %20, 0
  tail call void @__clang_call_terminate(ptr %21) #23
  unreachable

_ZN4absl13base_internal14SpinLockHolderD2Ev.exit: ; preds = %13, %18
  call void @llvm.lifetime.end.p0(i64 8, ptr nonnull %3) #21
  ret i32 %12

22:                                               ; preds = %_ZN4absl13base_internal14SpinLockHolderC2EPNS0_8SpinLockE.exit
  %23 = landingpad { ptr, i32 }
          cleanup
  call void @_ZN4absl13base_internal14SpinLockHolderD2Ev(ptr noundef nonnull align 8 dereferenceable(8) %3) #21
  call void @llvm.lifetime.end.p0(i64 8, ptr nonnull %3) #21
  resume { ptr, i32 } %23
}